target datalayout = "e-m:e-p270:32:32-p271:32:32-p272:64:64-i64:64-i128:128-f80:128-n8:16:32:64-S128"
target triple = "x86_64-pc-linux-gnu"

%struct.message = type { ptr, i32, i32, ptr, ptr, ptr, ptr, ptr, ptr, i64, i32, ptr, ptr, ptr, ptr, ptr, i8, i8, i8, i8, ptr }

@.str.50 = private unnamed_addr constant [84 x i8] c"Internal email parser error: invalid arguments when checking message encoding type\0A\00", align 1

; Function Attrs: nounwind uwtable
define i32 @messageGetEncoding(ptr noundef %0) #0 {
  %2 = alloca i32, align 4
  %3 = alloca ptr, align 8
  store ptr %0, ptr %3, align 8
  %4 = load ptr, ptr %3, align 8
  %5 = icmp eq ptr %4, null
  br i1 %5, label %6, label %7

6:                                                ; preds = %1
  call void (ptr, ...) @cli_errmsg(ptr noundef @.str.50)
  store i32 0, ptr %2, align 4
  br label %19

7:                                                ; preds = %1
  %8 = load ptr, ptr %3, align 8
  %9 = getelementptr inbounds %struct.message, ptr %8, i32 0, i32 2
  %10 = load i32, ptr %9, align 4
  %11 = icmp eq i32 %10, 0
  br i1 %11, label %12, label %13

12:                                               ; preds = %7
  store i32 0, ptr %2, align 4
  br label %19

13:                                               ; preds = %7
  %14 = load ptr, ptr %3, align 8
  %15 = getelementptr inbounds %struct.message, ptr %14, i32 0, i32 0
  %16 = load ptr, ptr %15, align 8
  %17 = getelementptr inbounds i32, ptr %16, i64 0
  %18 = load i32, ptr %17, align 4
  store i32 %18, ptr %2, align 4
  br label %19

19:                                               ; preds = %13, %12, %6
  %20 = load i32, ptr %2, align 4
  ret i32 %20
}