; Function Attrs: nounwind uwtable
define i32 @messageGetEncoding(ptr noundef readonly %0) local_unnamed_addr #2 {
  %2 = icmp eq ptr %0, null
  br i1 %2, label %3, label %4

3:                                                ; preds = %1
  tail call void (ptr, ...) @cli_errmsg(ptr noundef nonnull @.str.50) #21
  br label %11

4:                                                ; preds = %1
  %5 = getelementptr inbounds i8, ptr %0, i64 12
  %6 = load i32, ptr %5, align 4
  %7 = icmp eq i32 %6, 0
  br i1 %7, label %11, label %8

8:                                                ; preds = %4
  %9 = load ptr, ptr %0, align 8
  %10 = load i32, ptr %9, align 4
  br label %11

11:                                               ; preds = %4, %8, %3
  %.0 = phi i32 [ 0, %3 ], [ %10, %8 ], [ 0, %4 ]
  ret i32 %.0
}